; Function Attrs: mustprogress null_pointer_is_valid sspstrong uwtable
define noalias noundef ptr @_Z14qstring_strdup7QString(ptr noundef %0) local_unnamed_addr #0 personality ptr @__gxx_personality_v0 {
  %2 = alloca %class.QByteArray, align 8
  call void @llvm.lifetime.start.p0(i64 24, ptr nonnull %2) #21
  call void @_ZN7QString13toUtf8_helperERKS_(ptr dead_on_unwind nonnull writable sret(%class.QByteArray) align 8 %2, ptr noundef align 8 dereferenceable(24) dereferenceable_or_null(24) %0)
  %3 = getelementptr inbounds nuw i8, ptr %2, i64 8
  %4 = load ptr, ptr %3, align 8
  %.not.i.i = icmp eq ptr %4, null
  %spec.select.i.i = select i1 %.not.i.i, ptr @_ZN10QByteArray6_emptyE, ptr %4
  %5 = invoke noalias ptr @g_strdup(ptr noundef nonnull %spec.select.i.i)
          to label %6 unwind label %11

6:                                                ; preds = %1
  %7 = load ptr, ptr %2, align 8
  %.not.i.i.i = icmp eq ptr %7, null
  br i1 %.not.i.i.i, label %_ZN10QByteArrayD2Ev.exit, label %_ZN17QArrayDataPointerIcE5derefEv.exit.i.i

_ZN17QArrayDataPointerIcE5derefEv.exit.i.i:       ; preds = %6
  %8 = atomicrmw sub ptr %7, i32 1 seq_cst, align 4
  %.not.i.i1 = icmp eq i32 %8, 1
  br i1 %.not.i.i1, label %9, label %_ZN10QByteArrayD2Ev.exit

9:                                                ; preds = %_ZN17QArrayDataPointerIcE5derefEv.exit.i.i
  %10 = load ptr, ptr %2, align 8
  call void @_ZN10QArrayData10deallocateEPS_xx(ptr noundef %10, i64 noundef 1, i64 noundef 8) #21
  br label %_ZN10QByteArrayD2Ev.exit

_ZN10QByteArrayD2Ev.exit:                         ; preds = %6, %_ZN17QArrayDataPointerIcE5derefEv.exit.i.i, %9
  call void @llvm.lifetime.end.p0(i64 24, ptr nonnull %2) #21
  ret ptr %5

11:                                               ; preds = %1
  %12 = landingpad { ptr, i32 }
          cleanup
  %13 = load ptr, ptr %2, align 8
  %.not.i.i.i2 = icmp eq ptr %13, null
  br i1 %.not.i.i.i2, label %_ZN10QByteArrayD2Ev.exit5, label %_ZN17QArrayDataPointerIcE5derefEv.exit.i.i3

_ZN17QArrayDataPointerIcE5derefEv.exit.i.i3:      ; preds = %11
  %14 = atomicrmw sub ptr %13, i32 1 seq_cst, align 4
  %.not.i.i4 = icmp eq i32 %14, 1
  br i1 %.not.i.i4, label %15, label %_ZN10QByteArrayD2Ev.exit5

15:                                               ; preds = %_ZN17QArrayDataPointerIcE5derefEv.exit.i.i3
  %16 = load ptr, ptr %2, align 8
  call void @_ZN10QArrayData10deallocateEPS_xx(ptr noundef %16, i64 noundef 1, i64 noundef 8) #21
  br label %_ZN10QByteArrayD2Ev.exit5

_ZN10QByteArrayD2Ev.exit5:                        ; preds = %11, %_ZN17QArrayDataPointerIcE5derefEv.exit.i.i3, %15
  call void @llvm.lifetime.end.p0(i64 24, ptr nonnull %2) #21
  resume { ptr, i32 } %12
}